(lp0
S'poi'
p1
aS'salary'
p2
aS'bonus'
p3
aS'total_payments'
p4
aS'total_stock_value'
p5
aS'exercised_stock_options'
p6
aS'from_poi_to_this_person'
p7
aS'to_messages'
p8
aS'from_messages'
p9
aS'from_this_person_to_poi'
p10
aS'long_term_incentive'
p11
a.